; Function Attrs: nounwind uwtable
define dso_local void @conmgr_set_exit_on_error(i1 noundef zeroext %0) local_unnamed_addr #0 {
  %2 = tail call i32 @pthread_mutex_lock(ptr noundef nonnull getelementptr inbounds nuw (i8, ptr @mgr, i64 168)) #11
  %.not = icmp eq i32 %2, 0
  br i1 %.not, label %5, label %3

3:                                                ; preds = %1
  %4 = tail call ptr @__errno_location() #12
  store i32 %2, ptr %4, align 4
  tail call void (ptr, ...) @fatal_abort(ptr noundef nonnull @.str.6, ptr noundef nonnull @__func__.conmgr_set_exit_on_error) #13
  unreachable

5:                                                ; preds = %1
  %6 = zext i1 %0 to i8
  store i8 %6, ptr getelementptr inbounds nuw (i8, ptr @mgr, i64 124), align 4
  %7 = tail call i32 @pthread_mutex_unlock(ptr noundef nonnull getelementptr inbounds nuw (i8, ptr @mgr, i64 168)) #11
  %.not6 = icmp eq i32 %7, 0
  br i1 %.not6, label %10, label %8

8:                                                ; preds = %5
  %9 = tail call ptr @__errno_location() #12
  store i32 %7, ptr %9, align 4
  tail call void (ptr, ...) @fatal_abort(ptr noundef nonnull @.str.9, ptr noundef nonnull @__func__.conmgr_set_exit_on_error) #13
  unreachable

10:                                               ; preds = %5
  ret void
}